target datalayout = "e-m:e-p270:32:32-p271:32:32-p272:64:64-i64:64-i128:128-f80:128-n8:16:32:64-S128"
target triple = "x86_64-pc-linux-gnu"

%struct.AVFilterContext = type { ptr, ptr, ptr, ptr, ptr, i32, ptr, ptr, i32, ptr, ptr, i32, i32, ptr, ptr, ptr, ptr, i32, ptr, i32, i32 }
%struct.ScaleContext = type { ptr, ptr, %struct.FFFrameSync, i32, i32, ptr, [2 x double], i32, i32, i32, i32, i32, ptr, ptr, ptr, ptr, [41 x double], ptr, i32, i32, i32, i32, i32, i32, i32, i32, i32, i32, i32, i32, i32, i32, i32, i32, i32, i32 }
%struct.FFFrameSync = type { ptr, ptr, i32, %struct.AVRational, i64, ptr, ptr, i32, i32, i8, i8, ptr, i32, i32, i32, i32 }
%struct.AVRational = type { i32, i32 }

@.str.14 = private unnamed_addr constant [2 x i8] c"w\00", align 1
@.str.15 = private unnamed_addr constant [2 x i8] c"h\00", align 1
@.str.16 = private unnamed_addr constant [6 x i8] c"width\00", align 1
@.str.17 = private unnamed_addr constant [7 x i8] c"height\00", align 1
@.str.181 = private unnamed_addr constant [65 x i8] c"Failed to process command. Continuing with existing parameters.\0A\00", align 1

; Function Attrs: nounwind uwtable
define internal i32 @process_command(ptr noundef %0, ptr noundef %1, ptr noundef %2, ptr noundef %3, i32 noundef %4, i32 noundef %5) #1 {
  %7 = alloca ptr, align 8
  %8 = alloca ptr, align 8
  %9 = alloca ptr, align 8
  %10 = alloca ptr, align 8
  %11 = alloca i32, align 4
  %12 = alloca i32, align 4
  %13 = alloca ptr, align 8
  %14 = alloca ptr, align 8
  %15 = alloca ptr, align 8
  %16 = alloca i32, align 4
  %17 = alloca i32, align 4
  %18 = alloca i32, align 4
  store ptr %0, ptr %7, align 8, !tbaa !4
  store ptr %1, ptr %8, align 8, !tbaa !38
  store ptr %2, ptr %9, align 8, !tbaa !38
  store ptr %3, ptr %10, align 8, !tbaa !38
  store i32 %4, ptr %11, align 4, !tbaa !39
  store i32 %5, ptr %12, align 4, !tbaa !39
  call void @llvm.lifetime.start.p0(i64 8, ptr %13) #12
  %19 = load ptr, ptr %7, align 8, !tbaa !4
  %20 = getelementptr inbounds nuw %struct.AVFilterContext, ptr %19, i32 0, i32 9
  %21 = load ptr, ptr %20, align 8, !tbaa !9
  store ptr %21, ptr %13, align 8, !tbaa !22
  call void @llvm.lifetime.start.p0(i64 8, ptr %14) #12
  call void @llvm.lifetime.start.p0(i64 8, ptr %15) #12
  call void @llvm.lifetime.start.p0(i64 4, ptr %16) #12
  call void @llvm.lifetime.start.p0(i64 4, ptr %17) #12
  call void @llvm.lifetime.start.p0(i64 4, ptr %18) #12
  %22 = load ptr, ptr %8, align 8, !tbaa !38
  %23 = call i32 @strcmp(ptr noundef %22, ptr noundef @.str.16) #13
  %24 = icmp ne i32 %23, 0
  br i1 %24, label %25, label %30

25:                                               ; preds = %6
  %26 = load ptr, ptr %8, align 8, !tbaa !38
  %27 = call i32 @strcmp(ptr noundef %26, ptr noundef @.str.14) #13
  %28 = icmp ne i32 %27, 0
  %29 = xor i1 %28, true
  br label %30

30:                                               ; preds = %25, %6
  %31 = phi i1 [ true, %6 ], [ %29, %25 ]
  %32 = zext i1 %31 to i32
  store i32 %32, ptr %17, align 4, !tbaa !39
  %33 = load ptr, ptr %8, align 8, !tbaa !38
  %34 = call i32 @strcmp(ptr noundef %33, ptr noundef @.str.17) #13
  %35 = icmp ne i32 %34, 0
  br i1 %35, label %36, label %41

36:                                               ; preds = %30
  %37 = load ptr, ptr %8, align 8, !tbaa !38
  %38 = call i32 @strcmp(ptr noundef %37, ptr noundef @.str.15) #13
  %39 = icmp ne i32 %38, 0
  %40 = xor i1 %39, true
  br label %41

41:                                               ; preds = %36, %30
  %42 = phi i1 [ true, %30 ], [ %40, %36 ]
  %43 = zext i1 %42 to i32
  store i32 %43, ptr %18, align 4, !tbaa !39
  %44 = load i32, ptr %17, align 4, !tbaa !39
  %45 = icmp ne i32 %44, 0
  br i1 %45, label %49, label %46

46:                                               ; preds = %41
  %47 = load i32, ptr %18, align 4, !tbaa !39
  %48 = icmp ne i32 %47, 0
  br i1 %48, label %49, label %78

49:                                               ; preds = %46, %41
  %50 = load i32, ptr %17, align 4, !tbaa !39
  %51 = icmp ne i32 %50, 0
  br i1 %51, label %52, label %56

52:                                               ; preds = %49
  %53 = load ptr, ptr %13, align 8, !tbaa !22
  %54 = getelementptr inbounds nuw %struct.ScaleContext, ptr %53, i32 0, i32 12
  %55 = load ptr, ptr %54, align 8, !tbaa !36
  br label %60

56:                                               ; preds = %49
  %57 = load ptr, ptr %13, align 8, !tbaa !22
  %58 = getelementptr inbounds nuw %struct.ScaleContext, ptr %57, i32 0, i32 13
  %59 = load ptr, ptr %58, align 8, !tbaa !37
  br label %60

60:                                               ; preds = %56, %52
  %61 = phi ptr [ %55, %52 ], [ %59, %56 ]
  store ptr %61, ptr %14, align 8, !tbaa !38
  %62 = load i32, ptr %17, align 4, !tbaa !39
  %63 = icmp ne i32 %62, 0
  br i1 %63, label %64, label %67

64:                                               ; preds = %60
  %65 = load ptr, ptr %13, align 8, !tbaa !22
  %66 = getelementptr inbounds nuw %struct.ScaleContext, ptr %65, i32 0, i32 14
  br label %70

67:                                               ; preds = %60
  %68 = load ptr, ptr %13, align 8, !tbaa !22
  %69 = getelementptr inbounds nuw %struct.ScaleContext, ptr %68, i32 0, i32 15
  br label %70

70:                                               ; preds = %67, %64
  %71 = phi ptr [ %66, %64 ], [ %69, %67 ]
  store ptr %71, ptr %15, align 8, !tbaa !87
  %72 = load ptr, ptr %7, align 8, !tbaa !4
  %73 = load ptr, ptr %14, align 8, !tbaa !38
  %74 = load ptr, ptr %15, align 8, !tbaa !87
  %75 = load ptr, ptr %8, align 8, !tbaa !38
  %76 = load ptr, ptr %9, align 8, !tbaa !38
  %77 = call i32 @scale_parse_expr(ptr noundef %72, ptr noundef %73, ptr noundef %74, ptr noundef %75, ptr noundef %76)
  store i32 %77, ptr %16, align 4, !tbaa !39
  br label %79

78:                                               ; preds = %46
  store i32 -38, ptr %16, align 4, !tbaa !39
  br label %79

79:                                               ; preds = %78, %70
  %80 = load i32, ptr %16, align 4, !tbaa !39
  %81 = icmp slt i32 %80, 0
  br i1 %81, label %82, label %84

82:                                               ; preds = %79
  %83 = load ptr, ptr %7, align 8, !tbaa !4
  call void (ptr, i32, ptr, ...) @av_log(ptr noundef %83, i32 noundef 16, ptr noundef @.str.181)
  br label %84

84:                                               ; preds = %82, %79
  %85 = load i32, ptr %16, align 4, !tbaa !39
  call void @llvm.lifetime.end.p0(i64 4, ptr %18) #12
  call void @llvm.lifetime.end.p0(i64 4, ptr %17) #12
  call void @llvm.lifetime.end.p0(i64 4, ptr %16) #12
  call void @llvm.lifetime.end.p0(i64 8, ptr %15) #12
  call void @llvm.lifetime.end.p0(i64 8, ptr %14) #12
  call void @llvm.lifetime.end.p0(i64 8, ptr %13) #12
  ret i32 %85
}