; Function Attrs: nounwind uwtable
define internal range(i32 -2147483648, 1) i32 @process_command(ptr noundef %0, ptr noundef %1, ptr noundef %2, ptr readnone captures(none) %3, i32 %4, i32 %5) #1 {
  %7 = getelementptr inbounds nuw i8, ptr %0, i64 72
  %8 = load ptr, ptr %7, align 8, !tbaa !4
  %9 = tail call i32 @strcmp(ptr noundef nonnull dereferenceable(1) %1, ptr noundef nonnull dereferenceable(6) @.str.16) #15
  %.not = icmp eq i32 %9, 0
  br i1 %.not, label %.tail, label %sub_0

sub_0:                                            ; preds = %6
  %10 = load i8, ptr %1, align 1
  %.not33 = icmp eq i8 %10, 119
  br i1 %.not33, label %sub_1, label %.tail

sub_1:                                            ; preds = %sub_0
  %11 = getelementptr inbounds nuw i8, ptr %1, i64 1
  %12 = load i8, ptr %11, align 1
  %13 = icmp eq i8 %12, 0
  br label %.tail

.tail:                                            ; preds = %sub_1, %sub_0, %6
  %14 = phi i1 [ true, %6 ], [ false, %sub_0 ], [ %13, %sub_1 ]
  %15 = tail call i32 @strcmp(ptr noundef nonnull dereferenceable(1) %1, ptr noundef nonnull dereferenceable(7) @.str.17) #15
  %.not22 = icmp eq i32 %15, 0
  br i1 %.not22, label %.thread, label %sub_030

sub_030:                                          ; preds = %.tail
  %16 = load i8, ptr %1, align 1
  %.not34 = icmp eq i8 %16, 104
  br i1 %.not34, label %sub_131, label %.tail29

sub_131:                                          ; preds = %sub_030
  %17 = getelementptr inbounds nuw i8, ptr %1, i64 1
  %18 = load i8, ptr %17, align 1
  %19 = icmp eq i8 %18, 0
  br label %.tail29

.tail29:                                          ; preds = %sub_030, %sub_131
  %.not23 = phi i1 [ false, %sub_030 ], [ %19, %sub_131 ]
  %or.cond = select i1 %14, i1 true, i1 %.not23
  br i1 %or.cond, label %.thread, label %.thread25

.thread:                                          ; preds = %.tail, %.tail29
  %.v = select i1 %14, i64 184, i64 192
  %.in.v = select i1 %14, i64 168, i64 176
  %.in = getelementptr inbounds nuw i8, ptr %8, i64 %.in.v
  %20 = load ptr, ptr %.in, align 8, !tbaa !79
  %21 = getelementptr inbounds nuw i8, ptr %8, i64 %.v
  %22 = tail call fastcc i32 @scale_parse_expr(ptr noundef nonnull %0, ptr noundef %20, ptr noundef nonnull %21, ptr noundef nonnull %1, ptr noundef %2)
  %23 = icmp slt i32 %22, 0
  br i1 %23, label %.thread25, label %24

.thread25:                                        ; preds = %.tail29, %.thread
  %.028 = phi i32 [ %22, %.thread ], [ -38, %.tail29 ]
  tail call void (ptr, i32, ptr, ...) @av_log(ptr noundef nonnull %0, i32 noundef 16, ptr noundef nonnull @.str.181) #14
  br label %24

24:                                               ; preds = %.thread25, %.thread
  %.027 = phi i32 [ %.028, %.thread25 ], [ 0, %.thread ]
  ret i32 %.027
}